; Function Attrs: nounwind uwtable
define internal i32 @dsa_spki_pub_to_der(ptr noundef %0, ptr noundef %1, ptr readnone captures(none) %2) #0 {
  %4 = tail call ptr @DSA_get0_pub_key(ptr noundef %0) #5
  %5 = icmp eq ptr %4, null
  br i1 %5, label %6, label %7

6:                                                ; preds = %3
  tail call void @ERR_new() #5
  tail call void @ERR_set_debug(ptr noundef nonnull @.str, i32 noundef 612, ptr noundef nonnull @__func__.dsa_spki_pub_to_der) #5
  tail call void (i32, i32, ptr, ...) @ERR_set_error(i32 noundef 57, i32 noundef 220, ptr noundef null) #5
  br label %13

7:                                                ; preds = %3
  %8 = tail call ptr @BN_to_ASN1_INTEGER(ptr noundef nonnull %4, ptr noundef null) #5
  %9 = icmp eq ptr %8, null
  br i1 %9, label %10, label %11

10:                                               ; preds = %7
  tail call void @ERR_new() #5
  tail call void @ERR_set_debug(ptr noundef nonnull @.str, i32 noundef 616, ptr noundef nonnull @__func__.dsa_spki_pub_to_der) #5
  tail call void (i32, i32, ptr, ...) @ERR_set_error(i32 noundef 57, i32 noundef 160, ptr noundef null) #5
  br label %13

11:                                               ; preds = %7
  %12 = tail call i32 @i2d_ASN1_INTEGER(ptr noundef nonnull %8, ptr noundef %1) #5
  tail call void @ASN1_STRING_clear_free(ptr noundef nonnull %8) #5
  br label %13

13:                                               ; preds = %11, %10, %6
  %.0 = phi i32 [ 0, %6 ], [ 0, %10 ], [ %12, %11 ]
  ret i32 %.0
}